; Function Attrs: mustprogress nounwind uwtable
define dso_local void @_ZN4node9JSUDPWrapC2EPNS_11EnvironmentEN2v85LocalINS3_6ObjectEEE(ptr noundef nonnull align 8 dereferenceable(72) %this, ptr noundef %env, ptr %obj.coerce) unnamed_addr #3 align 2 {
entry:
  store ptr getelementptr inbounds ({ [10 x ptr] }, ptr @_ZTVN4node11UDPWrapBaseE, i64 0, i32 0, i64 2), ptr %this, align 8
  %listener_.i = getelementptr inbounds i8, ptr %this, i64 8
  store ptr null, ptr %listener_.i, align 8
  %0 = getelementptr inbounds i8, ptr %this, i64 16
  tail call void @_ZN4node9AsyncWrapC2EPNS_11EnvironmentEN2v85LocalINS3_6ObjectEEENS0_12ProviderTypeEd(ptr noundef nonnull align 8 dereferenceable(56) %0, ptr noundef %env, ptr %obj.coerce, i32 noundef 20, double noundef -1.000000e+00) #13
  store ptr getelementptr inbounds ({ [13 x ptr], [20 x ptr] }, ptr @_ZTVN4node9JSUDPWrapE, i64 0, i32 0, i64 2), ptr %this, align 8
  store ptr getelementptr inbounds ({ [13 x ptr], [20 x ptr] }, ptr @_ZTVN4node9JSUDPWrapE, i64 0, i32 1, i64 2), ptr %0, align 8
  tail call void @_ZN4node10BaseObject8MakeWeakEv(ptr noundef nonnull align 8 dereferenceable(32) %0) #13
  tail call void @_ZN2v86Object32SetAlignedPointerInInternalFieldEiPv(ptr noundef nonnull align 1 dereferenceable(1) %obj.coerce, i32 noundef 2, ptr noundef nonnull %this) #13
  ret void
}